; Function Attrs: mustprogress nounwind uwtable
define hidden void @_ZN13InstanceKlass18remove_java_mirrorEv(ptr noundef nonnull align 8 dereferenceable(464) %0) unnamed_addr #0 align 2 {
  tail call void @_ZN5Klass18remove_java_mirrorEv(ptr noundef nonnull align 8 dereferenceable(196) %0) #26
  %2 = getelementptr inbounds i8, ptr %0, i64 216
  %3 = load volatile ptr, ptr %2, align 8
  %.not = icmp eq ptr %3, null
  br i1 %.not, label %9, label %4

4:                                                ; preds = %1
  %5 = load volatile ptr, ptr %2, align 8
  %6 = load ptr, ptr %5, align 8
  %7 = getelementptr inbounds i8, ptr %6, i64 248
  %8 = load ptr, ptr %7, align 8
  tail call void %8(ptr noundef nonnull align 8 dereferenceable(216) %5) #26
  br label %9

9:                                                ; preds = %4, %1
  ret void
}